Certificate:
    Data:
        Version: 3 (0x2)
        Serial Number: 12288 (0x3000)
    Signature Algorithm: ecdsa-with-SHA256
        Issuer: C=US, ST=California, O=Zephyr BLE Auth Test, OU=BLE Auth Test, CN=Zephyr BLE Auth Intermediate/emailAddress=dummy@dummy.com
        Validity
            Not Before: Jan 18 22:24:57 2020 GMT
            Not After : Jan 27 22:24:57 2021 GMT
        Subject: C=US, ST=California, L=San Diego, O=Zephyr BLE Authentication Test, OU=Zephyr BLE Auth, CN=BLE Auth Device 1 Test/emailAddress=dummy@dummy.com
        Subject Public Key Info:
            Public Key Algorithm: id-ecPublicKey
                Public-Key: (256 bit)
                pub: 
                    04:d5:1a:9d:f2:54:59:74:dc:f1:04:26:12:6d:28:
                    6c:83:38:72:87:a3:d1:7f:da:5f:7d:c7:89:7b:3d:
                    01:ae:f9:9a:9b:6b:e8:37:a5:82:2d:a0:0c:14:a6:
                    92:d5:89:1f:54:44:e7:67:58:e6:b0:96:87:25:b6:
                    c4:24:e0:59:1a
                ASN1 OID: prime256v1
                NIST CURVE: P-256
        X509v3 extensions:
            X509v3 Basic Constraints: 
                CA:FALSE
            X509v3 Authority Key Identifier: 
                keyid:36:1F:70:3A:68:8A:0D:81:79:00:21:5C:DA:CF:ED:7D:F4:96:85:2A

            X509v3 Key Usage: critical
                Digital Signature
            X509v3 CRL Distribution Points: 

                Full Name:
                  URI:https://pki.legrand.us/legrand-bcs/devices.crl
                CRL Issuer:
                  DirName: CN = Zephyr BLE Auth Intermeidate, OU = Zephyr BLE, O = BLE auth, C = US

    Signature Algorithm: ecdsa-with-SHA256
         30:45:02:21:00:87:7b:32:23:ea:53:c5:03:34:d2:82:0c:c5:
         e6:4f:d3:0d:9b:af:34:6a:35:92:37:eb:45:43:6d:45:75:80:
         6c:02:20:76:e6:04:aa:c0:17:4f:34:4f:7b:71:ff:2e:ce:44:
         3d:b7:c8:39:27:26:b3:1e:16:04:34:2c:ce:f1:05:27:a5
-----BEGIN CERTIFICATE-----
MIIDMzCCAtmgAwIBAgICMAAwCgYIKoZIzj0EAwIwgaAxCzAJBgNVBAYTAlVTMRMw
EQYDVQQIDApDYWxpZm9ybmlhMR0wGwYDVQQKDBRaZXBoeXIgQkxFIEF1dGggVGVz
dDEWMBQGA1UECwwNQkxFIEF1dGggVGVzdDElMCMGA1UEAwwcWmVwaHlyIEJMRSBB
dXRoIEludGVybWVkaWF0ZTEeMBwGCSqGSIb3DQEJARYPZHVtbXlAZHVtbXkuY29t
MB4XDTIwMDExODIyMjQ1N1oXDTIxMDEyNzIyMjQ1N1owgboxCzAJBgNVBAYTAlVT
MRMwEQYDVQQIDApDYWxpZm9ybmlhMRIwEAYDVQQHDAlTYW4gRGllZ28xJzAlBgNV
BAoMHlplcGh5ciBCTEUgQXV0aGVudGljYXRpb24gVGVzdDEYMBYGA1UECwwPWmVw
aHlyIEJMRSBBdXRoMR8wHQYDVQQDDBZCTEUgQXV0aCBEZXZpY2UgMSBUZXN0MR4w
HAYJKoZIhvcNAQkBFg9kdW1teUBkdW1teS5jb20wWTATBgcqhkjOPQIBBggqhkjO
PQMBBwNCAATVGp3yVFl03PEEJhJtKGyDOHKHo9F/2l99x4l7PQGu+Zqba+g3pYIt
oAwUppLViR9UROdnWOawlocltsQk4Fkao4HmMIHjMAkGA1UdEwQCMAAwHwYDVR0j
BBgwFoAUNh9wOmiKDYF5ACFc2s/tffSWhSowDgYDVR0PAQH/BAQDAgeAMIGkBgNV
HR8EgZwwgZkwgZagMqAwhi5odHRwczovL3BraS5sZWdyYW5kLnVzL2xlZ3JhbmQt
YmNzL2RldmljZXMuY3JsomCkXjBcMSUwIwYDVQQDDBxaZXBoeXIgQkxFIEF1dGgg
SW50ZXJtZWlkYXRlMRMwEQYDVQQLDApaZXBoeXIgQkxFMREwDwYDVQQKDAhCTEUg
YXV0aDELMAkGA1UEBhMCVVMwCgYIKoZIzj0EAwIDSAAwRQIhAId7MiPqU8UDNNKC
DMXmT9MNm680ajWSN+tFQ21FdYBsAiB25gSqwBdPNE97cf8uzkQ9t8g5JyazHhYE
NCzO8QUnpQ==
-----END CERTIFICATE-----
