Certificate:
    Data:
        Version: 3 (0x2)
        Serial Number: 4096 (0x1000)
    Signature Algorithm: ecdsa-with-SHA256
        Issuer: C=US, ST=California, L=San Diego, O=Zephyr BLE Auth Test, OU=BLE Auth Test, CN=Zephyr BLE Auth Root Test/emailAddress=dummy@dummy.com
        Validity
            Not Before: Jan 18 21:48:21 2020 GMT
            Not After : Jan 27 21:48:21 2021 GMT
        Subject: C=US, ST=California, O=Zephyr BLE Auth Test, OU=BLE Auth Test, CN=Zephyr BLE Auth Intermediate/emailAddress=dummy@dummy.com
        Subject Public Key Info:
            Public Key Algorithm: id-ecPublicKey
                Public-Key: (256 bit)
                pub: 
                    04:80:a0:a3:92:ae:d7:5a:99:8b:8b:c5:a1:36:f6:
                    1e:60:92:86:fb:e9:b0:23:3f:d1:4d:d2:0d:da:85:
                    b3:20:54:4f:f7:17:76:56:2e:a9:8f:83:76:13:3e:
                    1a:94:34:41:de:0a:35:91:23:c0:55:85:10:c5:d5:
                    1f:ae:a0:26:0a
                ASN1 OID: prime256v1
                NIST CURVE: P-256
        X509v3 extensions:
            X509v3 Subject Key Identifier: 
                36:1F:70:3A:68:8A:0D:81:79:00:21:5C:DA:CF:ED:7D:F4:96:85:2A
            X509v3 Authority Key Identifier: 
                keyid:E3:01:08:DB:EC:94:8F:F0:EC:6C:F9:AA:2D:A9:20:8E:CB:96:50:A9

            X509v3 Basic Constraints: critical
                CA:TRUE, pathlen:1
            X509v3 Key Usage: critical
                Digital Signature, Certificate Sign, CRL Sign
    Signature Algorithm: ecdsa-with-SHA256
         30:46:02:21:00:cb:69:f3:01:26:fe:b8:a8:d5:04:a2:8a:d5:
         73:40:05:3f:66:49:8c:65:f0:ff:04:8a:f3:3f:08:82:fd:8b:
         08:02:21:00:8a:66:dc:c2:c3:fa:f0:4e:a6:55:af:af:11:38:
         16:a6:ee:d0:0e:9d:ee:db:2f:28:7e:8c:39:22:16:bd:37:ec
-----BEGIN CERTIFICATE-----
MIICqjCCAk+gAwIBAgICEAAwCgYIKoZIzj0EAwIwgbExCzAJBgNVBAYTAlVTMRMw
EQYDVQQIDApDYWxpZm9ybmlhMRIwEAYDVQQHDAlTYW4gRGllZ28xHTAbBgNVBAoM
FFplcGh5ciBCTEUgQXV0aCBUZXN0MRYwFAYDVQQLDA1CTEUgQXV0aCBUZXN0MSIw
IAYDVQQDDBlaZXBoeXIgQkxFIEF1dGggUm9vdCBUZXN0MR4wHAYJKoZIhvcNAQkB
Fg9kdW1teUBkdW1teS5jb20wHhcNMjAwMTE4MjE0ODIxWhcNMjEwMTI3MjE0ODIx
WjCBoDELMAkGA1UEBhMCVVMxEzARBgNVBAgMCkNhbGlmb3JuaWExHTAbBgNVBAoM
FFplcGh5ciBCTEUgQXV0aCBUZXN0MRYwFAYDVQQLDA1CTEUgQXV0aCBUZXN0MSUw
IwYDVQQDDBxaZXBoeXIgQkxFIEF1dGggSW50ZXJtZWRpYXRlMR4wHAYJKoZIhvcN
AQkBFg9kdW1teUBkdW1teS5jb20wWTATBgcqhkjOPQIBBggqhkjOPQMBBwNCAASA
oKOSrtdamYuLxaE29h5gkob76bAjP9FN0g3ahbMgVE/3F3ZWLqmPg3YTPhqUNEHe
CjWRI8BVhRDF1R+uoCYKo2YwZDAdBgNVHQ4EFgQUNh9wOmiKDYF5ACFc2s/tffSW
hSowHwYDVR0jBBgwFoAU4wEI2+yUj/DsbPmqLakgjsuWUKkwEgYDVR0TAQH/BAgw
BgEB/wIBATAOBgNVHQ8BAf8EBAMCAYYwCgYIKoZIzj0EAwIDSQAwRgIhAMtp8wEm
/rio1QSiitVzQAU/ZkmMZfD/BIrzPwiC/YsIAiEAimbcwsP68E6mVa+vETgWpu7Q
Dp3u2y8ofow5Iha9N+w=
-----END CERTIFICATE-----
