Certificate:
    Data:
        Version: 3 (0x2)
        Serial Number: 12291 (0x3003)
    Signature Algorithm: ecdsa-with-SHA256
        Issuer: C=US, ST=California, O=Zephyr BLE Auth Test, OU=BLE Auth Test, CN=Zephyr BLE Auth Intermediate/emailAddress=dummy@dummy.com
        Validity
            Not Before: Jan 18 22:33:09 2020 GMT
            Not After : Jan 27 22:33:09 2021 GMT
        Subject: C=US, ST=California, L=San Diego, O=Zephry BLE Authentication Test, OU=Zephyr BLE Auth, CN=BLE Auth Device 2/emailAddress=dummy@dummy.com
        Subject Public Key Info:
            Public Key Algorithm: id-ecPublicKey
                Public-Key: (256 bit)
                pub: 
                    04:20:5f:13:9f:9a:27:41:fb:1c:85:3a:87:1d:28:
                    b2:15:5d:d4:77:4a:ae:e5:12:2d:48:19:92:9c:9a:
                    20:9f:1d:ad:c1:75:38:83:aa:b4:2e:01:b5:c9:66:
                    91:ad:76:4f:d3:ab:aa:bb:42:3b:00:c1:41:b9:65:
                    54:15:c7:a9:eb
                ASN1 OID: prime256v1
                NIST CURVE: P-256
        X509v3 extensions:
            X509v3 Basic Constraints: 
                CA:FALSE
            X509v3 Authority Key Identifier: 
                keyid:36:1F:70:3A:68:8A:0D:81:79:00:21:5C:DA:CF:ED:7D:F4:96:85:2A

            X509v3 Key Usage: critical
                Digital Signature
    Signature Algorithm: ecdsa-with-SHA256
         30:45:02:20:28:19:be:45:62:b3:dd:0a:b7:cc:29:1e:33:b4:
         9d:19:75:88:63:c2:d7:8e:9b:14:29:a0:61:f8:13:2a:5e:bf:
         02:21:00:c0:fc:5b:0a:27:68:9d:66:57:ec:01:53:4e:2f:ef:
         70:67:d1:7b:62:3f:fd:10:a8:ab:9a:12:86:61:68:8e:46
-----BEGIN CERTIFICATE-----
MIIChTCCAiugAwIBAgICMAMwCgYIKoZIzj0EAwIwgaAxCzAJBgNVBAYTAlVTMRMw
EQYDVQQIDApDYWxpZm9ybmlhMR0wGwYDVQQKDBRaZXBoeXIgQkxFIEF1dGggVGVz
dDEWMBQGA1UECwwNQkxFIEF1dGggVGVzdDElMCMGA1UEAwwcWmVwaHlyIEJMRSBB
dXRoIEludGVybWVkaWF0ZTEeMBwGCSqGSIb3DQEJARYPZHVtbXlAZHVtbXkuY29t
MB4XDTIwMDExODIyMzMwOVoXDTIxMDEyNzIyMzMwOVowgbUxCzAJBgNVBAYTAlVT
MRMwEQYDVQQIDApDYWxpZm9ybmlhMRIwEAYDVQQHDAlTYW4gRGllZ28xJzAlBgNV
BAoMHlplcGhyeSBCTEUgQXV0aGVudGljYXRpb24gVGVzdDEYMBYGA1UECwwPWmVw
aHlyIEJMRSBBdXRoMRowGAYDVQQDDBFCTEUgQXV0aCBEZXZpY2UgMjEeMBwGCSqG
SIb3DQEJARYPZHVtbXlAZHVtbXkuY29tMFkwEwYHKoZIzj0CAQYIKoZIzj0DAQcD
QgAEIF8Tn5onQfschTqHHSiyFV3Ud0qu5RItSBmSnJognx2twXU4g6q0LgG1yWaR
rXZP06uqu0I7AMFBuWVUFcep66M+MDwwCQYDVR0TBAIwADAfBgNVHSMEGDAWgBQ2
H3A6aIoNgXkAIVzaz+199JaFKjAOBgNVHQ8BAf8EBAMCB4AwCgYIKoZIzj0EAwID
SAAwRQIgKBm+RWKz3Qq3zCkeM7SdGXWIY8LXjpsUKaBh+BMqXr8CIQDA/FsKJ2id
ZlfsAVNOL+9wZ9F7Yj/9EKirmhKGYWiORg==
-----END CERTIFICATE-----
